target datalayout = "e-m:e-p270:32:32-p271:32:32-p272:64:64-i64:64-i128:128-f80:128-n8:16:32:64-S128"
target triple = "x86_64-pc-linux-gnu"

%class.LogTagSet = type { ptr, i64, [5 x i32], [4 x i8], %class.LogOutputList, %class.LogDecorators, ptr }
%class.LogOutputList = type <{ [6 x ptr], i32, [4 x i8] }>
%class.LogDecorators = type { i32 }
%class.OopIterateClosure = type { %class.OopClosure, ptr }
%class.OopClosure = type { ptr }
%class.BFSClosure = type <{ %class.BasicOopIterateClosure, ptr, ptr, ptr, ptr, i64, i64, i64, i64, i8, [7 x i8] }>
%class.BasicOopIterateClosure = type { %class.OopIterateClosure }

@.str = private unnamed_addr constant [46 x i8] c"BFS front: %lu filled edge queue at edge: %lu\00", align 1
@.str.4 = private unnamed_addr constant [41 x i8] c"DFS to complete %lu edges size: %lu [KB]\00", align 1
@_ZN16LogTagSetMappingILN6LogTag4typeE64ELS1_156ELS1_0ELS1_0ELS1_0ELS1_0EE7_tagsetE = linkonce_odr hidden global %class.LogTagSet zeroinitializer, comdat, align 8
@.str.11 = private unnamed_addr constant [41 x i8] c"BFS front: %lu edges: %lu size: %lu [KB]\00", align 1

; Function Attrs: mustprogress nounwind uwtable
define linkonce_odr hidden noundef zeroext i1 @_ZNK13LogOutputList8is_levelEN8LogLevel4typeE(ptr noundef nonnull align 8 dereferenceable(52) %0, i32 noundef %1) #1 comdat align 2 {
  %3 = alloca ptr, align 8
  %4 = alloca i32, align 4
  store ptr %0, ptr %3, align 8
  store i32 %1, ptr %4, align 4
  %5 = load ptr, ptr %3, align 8
  %6 = getelementptr inbounds %class.LogOutputList, ptr %5, i32 0, i32 0
  %7 = load i32, ptr %4, align 4
  %8 = zext i32 %7 to i64
  %9 = getelementptr inbounds [6 x ptr], ptr %6, i64 0, i64 %8
  %10 = load volatile ptr, ptr %9, align 8
  %11 = icmp ne ptr %10, null
  ret i1 %11
}

; Function Attrs: mustprogress nounwind uwtable
define linkonce_odr hidden noundef zeroext i1 @_ZNK9LogTagSet8is_levelEN8LogLevel4typeE(ptr noundef nonnull align 8 dereferenceable(112) %0, i32 noundef %1) #1 comdat align 2 {
  %3 = alloca ptr, align 8
  %4 = alloca i32, align 4
  store ptr %0, ptr %3, align 8
  store i32 %1, ptr %4, align 4
  %5 = load ptr, ptr %3, align 8
  %6 = getelementptr inbounds %class.LogTagSet, ptr %5, i32 0, i32 4
  %7 = load i32, ptr %4, align 4
  %8 = call noundef zeroext i1 @_ZNK13LogOutputList8is_levelEN8LogLevel4typeE(ptr noundef nonnull align 8 dereferenceable(52) %6, i32 noundef %7)
  ret i1 %8
}

; Function Attrs: mustprogress nounwind uwtable
define linkonce_odr hidden noundef nonnull align 8 dereferenceable(112) ptr @_ZN16LogTagSetMappingILN6LogTag4typeE64ELS1_156ELS1_0ELS1_0ELS1_0ELS1_0EE6tagsetEv() #1 comdat align 2 {
  ret ptr @_ZN16LogTagSetMappingILN6LogTag4typeE64ELS1_156ELS1_0ELS1_0ELS1_0ELS1_0EE7_tagsetE
}

; Function Attrs: mustprogress nounwind uwtable
define linkonce_odr hidden noundef zeroext i1 @_ZN7LogImplILN6LogTag4typeE64ELS1_156ELS1_0ELS1_0ELS1_0ELS1_0EE8is_levelEN8LogLevel4typeE(i32 noundef %0) #1 comdat align 2 {
  %2 = alloca i32, align 4
  store i32 %0, ptr %2, align 4
  %3 = call noundef nonnull align 8 dereferenceable(112) ptr @_ZN16LogTagSetMappingILN6LogTag4typeE64ELS1_156ELS1_0ELS1_0ELS1_0ELS1_0EE6tagsetEv()
  %4 = load i32, ptr %2, align 4
  %5 = call noundef zeroext i1 @_ZNK9LogTagSet8is_levelEN8LogLevel4typeE(ptr noundef nonnull align 8 dereferenceable(112) %3, i32 noundef %4)
  ret i1 %5
}

; Function Attrs: mustprogress nounwind uwtable
define internal void @_ZL26log_frontier_level_summarymmmm(i64 noundef %0, i64 noundef %1, i64 noundef %2, i64 noundef %3) #1 {
  %5 = alloca i64, align 8
  %6 = alloca i64, align 8
  %7 = alloca i64, align 8
  %8 = alloca i64, align 8
  %9 = alloca i64, align 8
  store i64 %0, ptr %5, align 8
  store i64 %1, ptr %6, align 8
  store i64 %2, ptr %7, align 8
  store i64 %3, ptr %8, align 8
  %10 = load i64, ptr %6, align 8
  %11 = load i64, ptr %7, align 8
  %12 = sub i64 %10, %11
  store i64 %12, ptr %9, align 8
  %13 = call noundef zeroext i1 @_ZN7LogImplILN6LogTag4typeE64ELS1_156ELS1_0ELS1_0ELS1_0ELS1_0EE8is_levelEN8LogLevel4typeE(i32 noundef 1)
  br i1 %13, label %15, label %14

14:                                               ; preds = %4
  br label %22

15:                                               ; preds = %4
  %16 = load i64, ptr %5, align 8
  %17 = load i64, ptr %9, align 8
  %18 = load i64, ptr %9, align 8
  %19 = load i64, ptr %8, align 8
  %20 = mul i64 %18, %19
  %21 = udiv i64 %20, 1024
  call void (ptr, ...) @_ZN7LogImplILN6LogTag4typeE64ELS1_156ELS1_0ELS1_0ELS1_0ELS1_0EE5writeILN8LogLevel4typeE1EEEvPKcz(ptr noundef @.str.11, i64 noundef %16, i64 noundef %17, i64 noundef %21)
  br label %22

22:                                               ; preds = %15, %14
  ret void
}

; Function Attrs: mustprogress nounwind uwtable
define hidden void @_ZNK10BFSClosure16log_dfs_fallbackEv(ptr noundef nonnull align 8 dereferenceable(81) %0) #1 align 2 {
  %2 = alloca ptr, align 8
  %3 = alloca i64, align 8
  %4 = alloca i64, align 8
  store ptr %0, ptr %2, align 8
  %5 = load ptr, ptr %2, align 8
  %6 = getelementptr inbounds %class.BFSClosure, ptr %5, i32 0, i32 1
  %7 = load ptr, ptr %6, align 8
  %8 = call noundef i64 @_ZNK9EdgeQueue11sizeof_edgeEv(ptr noundef nonnull align 8 dereferenceable(40) %7)
  store i64 %8, ptr %3, align 8
  %9 = getelementptr inbounds %class.BFSClosure, ptr %5, i32 0, i32 5
  %10 = load i64, ptr %9, align 8
  %11 = getelementptr inbounds %class.BFSClosure, ptr %5, i32 0, i32 6
  %12 = load i64, ptr %11, align 8
  %13 = getelementptr inbounds %class.BFSClosure, ptr %5, i32 0, i32 7
  %14 = load i64, ptr %13, align 8
  %15 = load i64, ptr %3, align 8
  call void @_ZL26log_frontier_level_summarymmmm(i64 noundef %10, i64 noundef %12, i64 noundef %14, i64 noundef %15)
  %16 = getelementptr inbounds %class.BFSClosure, ptr %5, i32 0, i32 5
  %17 = load i64, ptr %16, align 8
  %18 = add i64 %17, 1
  %19 = getelementptr inbounds %class.BFSClosure, ptr %5, i32 0, i32 1
  %20 = load ptr, ptr %19, align 8
  %21 = call noundef i64 @_ZNK9EdgeQueue6bottomEv(ptr noundef nonnull align 8 dereferenceable(40) %20)
  %22 = getelementptr inbounds %class.BFSClosure, ptr %5, i32 0, i32 6
  %23 = load i64, ptr %22, align 8
  %24 = load i64, ptr %3, align 8
  call void @_ZL26log_frontier_level_summarymmmm(i64 noundef %18, i64 noundef %21, i64 noundef %23, i64 noundef %24)
  %25 = call noundef zeroext i1 @_ZN7LogImplILN6LogTag4typeE64ELS1_156ELS1_0ELS1_0ELS1_0ELS1_0EE8is_levelEN8LogLevel4typeE(i32 noundef 1)
  br i1 %25, label %27, label %26

26:                                               ; preds = %1
  br label %32

27:                                               ; preds = %1
  %28 = getelementptr inbounds %class.BFSClosure, ptr %5, i32 0, i32 5
  %29 = load i64, ptr %28, align 8
  %30 = getelementptr inbounds %class.BFSClosure, ptr %5, i32 0, i32 8
  %31 = load i64, ptr %30, align 8
  call void (ptr, ...) @_ZN7LogImplILN6LogTag4typeE64ELS1_156ELS1_0ELS1_0ELS1_0ELS1_0EE5writeILN8LogLevel4typeE1EEEvPKcz(ptr noundef @.str, i64 noundef %29, i64 noundef %31)
  br label %32

32:                                               ; preds = %27, %26
  %33 = getelementptr inbounds %class.BFSClosure, ptr %5, i32 0, i32 1
  %34 = load ptr, ptr %33, align 8
  %35 = call noundef i64 @_ZNK9EdgeQueue6bottomEv(ptr noundef nonnull align 8 dereferenceable(40) %34)
  %36 = getelementptr inbounds %class.BFSClosure, ptr %5, i32 0, i32 8
  %37 = load i64, ptr %36, align 8
  %38 = sub i64 %35, %37
  store i64 %38, ptr %4, align 8
  %39 = call noundef zeroext i1 @_ZN7LogImplILN6LogTag4typeE64ELS1_156ELS1_0ELS1_0ELS1_0ELS1_0EE8is_levelEN8LogLevel4typeE(i32 noundef 1)
  br i1 %39, label %41, label %40

40:                                               ; preds = %32
  br label %47

41:                                               ; preds = %32
  %42 = load i64, ptr %4, align 8
  %43 = load i64, ptr %4, align 8
  %44 = load i64, ptr %3, align 8
  %45 = mul i64 %43, %44
  %46 = udiv i64 %45, 1024
  call void (ptr, ...) @_ZN7LogImplILN6LogTag4typeE64ELS1_156ELS1_0ELS1_0ELS1_0ELS1_0EE5writeILN8LogLevel4typeE1EEEvPKcz(ptr noundef @.str.4, i64 noundef %42, i64 noundef %46)
  br label %47

47:                                               ; preds = %41, %40
  ret void
}