; Function Attrs: mustprogress nounwind uwtable
define hidden void @_ZNK10BFSClosure16log_dfs_fallbackEv(ptr nocapture noundef nonnull readonly align 8 dereferenceable(81) %0) local_unnamed_addr #1 align 2 {
  %2 = getelementptr inbounds i8, ptr %0, i64 16
  %3 = load ptr, ptr %2, align 8
  %4 = tail call noundef i64 @_ZNK9EdgeQueue11sizeof_edgeEv(ptr noundef nonnull align 8 dereferenceable(40) %3) #12
  %5 = getelementptr inbounds i8, ptr %0, i64 48
  %6 = load i64, ptr %5, align 8
  %7 = getelementptr inbounds i8, ptr %0, i64 56
  %8 = load i64, ptr %7, align 8
  %9 = getelementptr inbounds i8, ptr %0, i64 64
  %10 = load i64, ptr %9, align 8
  %11 = load volatile ptr, ptr getelementptr inbounds (i8, ptr @_ZN16LogTagSetMappingILN6LogTag4typeE64ELS1_156ELS1_0ELS1_0ELS1_0ELS1_0EE7_tagsetE, i64 48), align 8
  %.not.i = icmp eq ptr %11, null
  br i1 %.not.i, label %_ZL26log_frontier_level_summarymmmm.exit, label %12

12:                                               ; preds = %1
  %13 = sub i64 %8, %10
  %14 = mul i64 %13, %4
  %15 = lshr i64 %14, 10
  tail call void (ptr, ...) @_ZN7LogImplILN6LogTag4typeE64ELS1_156ELS1_0ELS1_0ELS1_0ELS1_0EE5writeILN8LogLevel4typeE1EEEvPKcz(ptr noundef nonnull @.str.11, i64 noundef %6, i64 noundef %13, i64 noundef %15)
  %.pre = load i64, ptr %5, align 8
  br label %_ZL26log_frontier_level_summarymmmm.exit

_ZL26log_frontier_level_summarymmmm.exit:         ; preds = %1, %12
  %16 = phi i64 [ %6, %1 ], [ %.pre, %12 ]
  %17 = load ptr, ptr %2, align 8
  %18 = tail call noundef i64 @_ZNK9EdgeQueue6bottomEv(ptr noundef nonnull align 8 dereferenceable(40) %17) #12
  %19 = load i64, ptr %7, align 8
  %20 = load volatile ptr, ptr getelementptr inbounds (i8, ptr @_ZN16LogTagSetMappingILN6LogTag4typeE64ELS1_156ELS1_0ELS1_0ELS1_0ELS1_0EE7_tagsetE, i64 48), align 8
  %.not.i5 = icmp eq ptr %20, null
  br i1 %.not.i5, label %_ZL26log_frontier_level_summarymmmm.exit6, label %21

21:                                               ; preds = %_ZL26log_frontier_level_summarymmmm.exit
  %22 = add i64 %16, 1
  %23 = sub i64 %18, %19
  %24 = mul i64 %23, %4
  %25 = lshr i64 %24, 10
  tail call void (ptr, ...) @_ZN7LogImplILN6LogTag4typeE64ELS1_156ELS1_0ELS1_0ELS1_0ELS1_0EE5writeILN8LogLevel4typeE1EEEvPKcz(ptr noundef nonnull @.str.11, i64 noundef %22, i64 noundef %23, i64 noundef %25)
  br label %_ZL26log_frontier_level_summarymmmm.exit6

_ZL26log_frontier_level_summarymmmm.exit6:        ; preds = %_ZL26log_frontier_level_summarymmmm.exit, %21
  %26 = load volatile ptr, ptr getelementptr inbounds (i8, ptr @_ZN16LogTagSetMappingILN6LogTag4typeE64ELS1_156ELS1_0ELS1_0ELS1_0ELS1_0EE7_tagsetE, i64 48), align 8
  %.not = icmp eq ptr %26, null
  br i1 %.not, label %31, label %27

27:                                               ; preds = %_ZL26log_frontier_level_summarymmmm.exit6
  %28 = load i64, ptr %5, align 8
  %29 = getelementptr inbounds i8, ptr %0, i64 72
  %30 = load i64, ptr %29, align 8
  tail call void (ptr, ...) @_ZN7LogImplILN6LogTag4typeE64ELS1_156ELS1_0ELS1_0ELS1_0ELS1_0EE5writeILN8LogLevel4typeE1EEEvPKcz(ptr noundef nonnull @.str, i64 noundef %28, i64 noundef %30)
  br label %31

31:                                               ; preds = %_ZL26log_frontier_level_summarymmmm.exit6, %27
  %32 = load ptr, ptr %2, align 8
  %33 = tail call noundef i64 @_ZNK9EdgeQueue6bottomEv(ptr noundef nonnull align 8 dereferenceable(40) %32) #12
  %34 = getelementptr inbounds i8, ptr %0, i64 72
  %35 = load i64, ptr %34, align 8
  %36 = load volatile ptr, ptr getelementptr inbounds (i8, ptr @_ZN16LogTagSetMappingILN6LogTag4typeE64ELS1_156ELS1_0ELS1_0ELS1_0ELS1_0EE7_tagsetE, i64 48), align 8
  %.not7 = icmp eq ptr %36, null
  br i1 %.not7, label %41, label %37

37:                                               ; preds = %31
  %38 = sub i64 %33, %35
  %39 = mul i64 %38, %4
  %40 = lshr i64 %39, 10
  tail call void (ptr, ...) @_ZN7LogImplILN6LogTag4typeE64ELS1_156ELS1_0ELS1_0ELS1_0ELS1_0EE5writeILN8LogLevel4typeE1EEEvPKcz(ptr noundef nonnull @.str.4, i64 noundef %38, i64 noundef %40)
  br label %41

41:                                               ; preds = %31, %37
  ret void
}